target datalayout = "e-m:e-p270:32:32-p271:32:32-p272:64:64-i64:64-i128:128-f80:128-n8:16:32:64-S128"
target triple = "x86_64-pc-linux-gnu"

%class.Phase = type { i32, ptr }
%class.Node_List = type <{ %class.Node_Array, i32, [4 x i8] }>
%class.Node_Array = type { ptr, i32, ptr }
%class.Node = type <{ ptr, ptr, ptr, i32, i32, i32, i32, i32, i32, i32, [4 x i8] }>
%class.MemoryGraphFixer = type <{ %class.Node_List, i32, [4 x i8], ptr, i8, [7 x i8] }>
%"class.Compile::AliasType" = type { i32, ptr, ptr, ptr, i8, i32 }

@_ZN4Type6MEMORYE = external global ptr, align 8
@_ZN7TypePtr6BOTTOME = external global ptr, align 8

; Function Attrs: mustprogress nounwind uwtable
define linkonce_odr hidden noundef i32 @_ZNK7Compile9AliasType5indexEv(ptr noundef nonnull align 8 dereferenceable(40) %0) #1 comdat align 2 {
  %2 = alloca ptr, align 8
  store ptr %0, ptr %2, align 8
  %3 = load ptr, ptr %2, align 8
  %4 = getelementptr inbounds %"class.Compile::AliasType", ptr %3, i32 0, i32 0
  %5 = load i32, ptr %4, align 8
  ret i32 %5
}

; Function Attrs: mustprogress nounwind uwtable
define linkonce_odr hidden noundef ptr @_ZN7Compile10alias_typeEPK7TypePtrP7ciField(ptr noundef nonnull align 8 dereferenceable(2316) %0, ptr noundef %1, ptr noundef %2) #1 comdat align 2 {
  %4 = alloca ptr, align 8
  %5 = alloca ptr, align 8
  %6 = alloca ptr, align 8
  store ptr %0, ptr %4, align 8
  store ptr %1, ptr %5, align 8
  store ptr %2, ptr %6, align 8
  %7 = load ptr, ptr %4, align 8
  %8 = load ptr, ptr %5, align 8
  %9 = load ptr, ptr %6, align 8
  %10 = call noundef ptr @_ZN7Compile15find_alias_typeEPK7TypePtrbP7ciField(ptr noundef nonnull align 8 dereferenceable(2316) %7, ptr noundef %8, i1 noundef zeroext false, ptr noundef %9)
  ret ptr %10
}

; Function Attrs: mustprogress nounwind uwtable
define linkonce_odr hidden noundef i32 @_ZN7Compile15get_alias_indexEPK7TypePtr(ptr noundef nonnull align 8 dereferenceable(2316) %0, ptr noundef %1) #1 comdat align 2 {
  %3 = alloca ptr, align 8
  %4 = alloca ptr, align 8
  store ptr %0, ptr %3, align 8
  store ptr %1, ptr %4, align 8
  %5 = load ptr, ptr %3, align 8
  %6 = load ptr, ptr %4, align 8
  %7 = call noundef ptr @_ZN7Compile10alias_typeEPK7TypePtrP7ciField(ptr noundef nonnull align 8 dereferenceable(2316) %5, ptr noundef %6, ptr noundef null)
  %8 = call noundef i32 @_ZNK7Compile9AliasType5indexEv(ptr noundef nonnull align 8 dereferenceable(40) %7)
  ret i32 %8
}

; Function Attrs: mustprogress nounwind uwtable
define linkonce_odr hidden noundef zeroext i1 @_ZNK4Node6is_PhiEv(ptr noundef nonnull align 8 dereferenceable(52) %0) #1 comdat align 2 {
  %2 = alloca ptr, align 8
  store ptr %0, ptr %2, align 8
  %3 = load ptr, ptr %2, align 8
  %4 = getelementptr inbounds %class.Node, ptr %3, i32 0, i32 8
  %5 = load i32, ptr %4, align 4
  %6 = and i32 %5, 15
  %7 = icmp eq i32 %6, 12
  ret i1 %7
}

; Function Attrs: mustprogress nounwind uwtable
define linkonce_odr hidden noundef ptr @_ZNK4Node8fast_outEPPS_(ptr noundef nonnull align 8 dereferenceable(52) %0, ptr noundef %1) #1 comdat align 2 {
  %3 = alloca ptr, align 8
  %4 = alloca ptr, align 8
  store ptr %0, ptr %3, align 8
  store ptr %1, ptr %4, align 8
  %5 = load ptr, ptr %4, align 8
  %6 = load ptr, ptr %5, align 8
  ret ptr %6
}

; Function Attrs: mustprogress nounwind uwtable
define linkonce_odr hidden noundef ptr @_ZNK4Node9fast_outsERPPS_(ptr noundef nonnull align 8 dereferenceable(52) %0, ptr noundef nonnull align 8 dereferenceable(8) %1) #1 comdat align 2 {
  %3 = alloca ptr, align 8
  %4 = alloca ptr, align 8
  %5 = alloca ptr, align 8
  store ptr %0, ptr %3, align 8
  store ptr %1, ptr %4, align 8
  %6 = load ptr, ptr %3, align 8
  %7 = getelementptr inbounds %class.Node, ptr %6, i32 0, i32 2
  %8 = load ptr, ptr %7, align 8
  store ptr %8, ptr %5, align 8
  %9 = load ptr, ptr %5, align 8
  %10 = getelementptr inbounds %class.Node, ptr %6, i32 0, i32 5
  %11 = load i32, ptr %10, align 8
  %12 = zext i32 %11 to i64
  %13 = getelementptr inbounds ptr, ptr %9, i64 %12
  %14 = load ptr, ptr %4, align 8
  store ptr %13, ptr %14, align 8
  %15 = load ptr, ptr %5, align 8
  ret ptr %15
}

; Function Attrs: mustprogress nounwind uwtable
define linkonce_odr hidden noundef ptr @_ZNK4Node2inEj(ptr noundef nonnull align 8 dereferenceable(52) %0, i32 noundef %1) #1 comdat align 2 {
  %3 = alloca ptr, align 8
  %4 = alloca i32, align 4
  store ptr %0, ptr %3, align 8
  store i32 %1, ptr %4, align 4
  %5 = load ptr, ptr %3, align 8
  %6 = getelementptr inbounds %class.Node, ptr %5, i32 0, i32 1
  %7 = load ptr, ptr %6, align 8
  %8 = load i32, ptr %4, align 4
  %9 = zext i32 %8 to i64
  %10 = getelementptr inbounds ptr, ptr %7, i64 %9
  %11 = load ptr, ptr %10, align 8
  ret ptr %11
}

; Function Attrs: mustprogress nounwind uwtable
define hidden noundef zeroext i1 @_ZNK16MemoryGraphFixer18should_process_phiEP4Node(ptr noundef nonnull align 8 dereferenceable(49) %0, ptr noundef %1) #1 align 2 {
  %3 = alloca i1, align 1
  %4 = alloca ptr, align 8
  %5 = alloca ptr, align 8
  %6 = alloca ptr, align 8
  %7 = alloca ptr, align 8
  %8 = alloca ptr, align 8
  %9 = alloca ptr, align 8
  store ptr %0, ptr %4, align 8
  store ptr %1, ptr %5, align 8
  %10 = load ptr, ptr %4, align 8
  %11 = load ptr, ptr %5, align 8
  %12 = load ptr, ptr %11, align 8
  %13 = getelementptr inbounds ptr, ptr %12, i64 6
  %14 = load ptr, ptr %13, align 8
  %15 = call noundef ptr %14(ptr noundef nonnull align 8 dereferenceable(52) %11)
  %16 = load ptr, ptr @_ZN7TypePtr6BOTTOME, align 8
  %17 = icmp eq ptr %15, %16
  br i1 %17, label %18, label %66

18:                                               ; preds = %2
  %19 = load ptr, ptr %5, align 8
  %20 = call noundef ptr @_ZNK4Node2inEj(ptr noundef nonnull align 8 dereferenceable(52) %19, i32 noundef 0)
  store ptr %20, ptr %6, align 8
  %21 = load ptr, ptr %6, align 8
  %22 = call noundef ptr @_ZNK4Node9fast_outsERPPS_(ptr noundef nonnull align 8 dereferenceable(52) %21, ptr noundef nonnull align 8 dereferenceable(8) %7)
  store ptr %22, ptr %8, align 8
  br label %23

23:                                               ; preds = %62, %18
  %24 = load ptr, ptr %8, align 8
  %25 = load ptr, ptr %7, align 8
  %26 = icmp ult ptr %24, %25
  br i1 %26, label %27, label %65

27:                                               ; preds = %23
  %28 = load ptr, ptr %6, align 8
  %29 = load ptr, ptr %8, align 8
  %30 = call noundef ptr @_ZNK4Node8fast_outEPPS_(ptr noundef nonnull align 8 dereferenceable(52) %28, ptr noundef %29)
  store ptr %30, ptr %9, align 8
  %31 = load ptr, ptr %9, align 8
  %32 = call noundef zeroext i1 @_ZNK4Node6is_PhiEv(ptr noundef nonnull align 8 dereferenceable(52) %31)
  br i1 %32, label %33, label %61

33:                                               ; preds = %27
  %34 = load ptr, ptr %9, align 8
  %35 = load ptr, ptr %5, align 8
  %36 = icmp ne ptr %34, %35
  br i1 %36, label %37, label %61

37:                                               ; preds = %33
  %38 = load ptr, ptr %9, align 8
  %39 = load ptr, ptr %38, align 8
  %40 = getelementptr inbounds ptr, ptr %39, i64 5
  %41 = load ptr, ptr %40, align 8
  %42 = call noundef ptr %41(ptr noundef nonnull align 8 dereferenceable(52) %38)
  %43 = load ptr, ptr @_ZN4Type6MEMORYE, align 8
  %44 = icmp eq ptr %42, %43
  br i1 %44, label %45, label %61

45:                                               ; preds = %37
  %46 = getelementptr inbounds %class.MemoryGraphFixer, ptr %10, i32 0, i32 3
  %47 = load ptr, ptr %46, align 8
  %48 = getelementptr inbounds i8, ptr %47, i64 8
  %49 = getelementptr inbounds %class.Phase, ptr %48, i32 0, i32 1
  %50 = load ptr, ptr %49, align 8
  %51 = load ptr, ptr %9, align 8
  %52 = load ptr, ptr %51, align 8
  %53 = getelementptr inbounds ptr, ptr %52, i64 6
  %54 = load ptr, ptr %53, align 8
  %55 = call noundef ptr %54(ptr noundef nonnull align 8 dereferenceable(52) %51)
  %56 = call noundef i32 @_ZN7Compile15get_alias_indexEPK7TypePtr(ptr noundef nonnull align 8 dereferenceable(2316) %50, ptr noundef %55)
  %57 = getelementptr inbounds %class.MemoryGraphFixer, ptr %10, i32 0, i32 1
  %58 = load i32, ptr %57, align 8
  %59 = icmp eq i32 %56, %58
  br i1 %59, label %60, label %61

60:                                               ; preds = %45
  store i1 false, ptr %3, align 1
  br label %81

61:                                               ; preds = %45, %37, %33, %27
  br label %62

62:                                               ; preds = %61
  %63 = load ptr, ptr %8, align 8
  %64 = getelementptr inbounds ptr, ptr %63, i32 1
  store ptr %64, ptr %8, align 8
  br label %23, !llvm.loop !88

65:                                               ; preds = %23
  store i1 true, ptr %3, align 1
  br label %81

66:                                               ; preds = %2
  %67 = getelementptr inbounds %class.MemoryGraphFixer, ptr %10, i32 0, i32 3
  %68 = load ptr, ptr %67, align 8
  %69 = getelementptr inbounds i8, ptr %68, i64 8
  %70 = getelementptr inbounds %class.Phase, ptr %69, i32 0, i32 1
  %71 = load ptr, ptr %70, align 8
  %72 = load ptr, ptr %5, align 8
  %73 = load ptr, ptr %72, align 8
  %74 = getelementptr inbounds ptr, ptr %73, i64 6
  %75 = load ptr, ptr %74, align 8
  %76 = call noundef ptr %75(ptr noundef nonnull align 8 dereferenceable(52) %72)
  %77 = call noundef i32 @_ZN7Compile15get_alias_indexEPK7TypePtr(ptr noundef nonnull align 8 dereferenceable(2316) %71, ptr noundef %76)
  %78 = getelementptr inbounds %class.MemoryGraphFixer, ptr %10, i32 0, i32 1
  %79 = load i32, ptr %78, align 8
  %80 = icmp eq i32 %77, %79
  store i1 %80, ptr %3, align 1
  br label %81

81:                                               ; preds = %66, %65, %60
  %82 = load i1, ptr %3, align 1
  ret i1 %82
}