; Function Attrs: mustprogress nounwind uwtable
define hidden noundef zeroext i1 @_ZNK16MemoryGraphFixer18should_process_phiEP4Node(ptr nocapture noundef nonnull readonly align 8 dereferenceable(49) %0, ptr noundef %1) local_unnamed_addr #0 align 2 {
  %3 = load ptr, ptr %1, align 8
  %4 = getelementptr inbounds i8, ptr %3, i64 48
  %5 = load ptr, ptr %4, align 8
  %6 = tail call noundef ptr %5(ptr noundef nonnull align 8 dereferenceable(52) %1) #10
  %7 = load ptr, ptr @_ZN7TypePtr6BOTTOME, align 8
  %8 = icmp eq ptr %6, %7
  br i1 %8, label %9, label %49

9:                                                ; preds = %2
  %10 = getelementptr inbounds i8, ptr %1, i64 8
  %11 = load ptr, ptr %10, align 8
  %12 = load ptr, ptr %11, align 8
  %13 = getelementptr inbounds i8, ptr %12, i64 16
  %14 = load ptr, ptr %13, align 8
  %15 = getelementptr inbounds i8, ptr %12, i64 32
  %16 = load i32, ptr %15, align 8
  %17 = zext i32 %16 to i64
  %18 = getelementptr inbounds ptr, ptr %14, i64 %17
  %19 = getelementptr inbounds i8, ptr %0, i64 40
  %.not21 = icmp eq i32 %16, 0
  br i1 %.not21, label %.loopexit, label %.lr.ph

.lr.ph:                                           ; preds = %9
  %20 = getelementptr inbounds i8, ptr %0, i64 32
  br label %21

21:                                               ; preds = %.lr.ph, %46
  %.01518 = phi ptr [ %14, %.lr.ph ], [ %47, %46 ]
  %22 = load ptr, ptr %.01518, align 8
  %23 = getelementptr inbounds i8, ptr %22, i64 44
  %24 = load i32, ptr %23, align 4
  %25 = and i32 %24, 15
  %26 = icmp ne i32 %25, 12
  %.not = icmp eq ptr %22, %1
  %or.cond = or i1 %.not, %26
  br i1 %or.cond, label %46, label %27

27:                                               ; preds = %21
  %28 = load ptr, ptr %22, align 8
  %29 = getelementptr inbounds i8, ptr %28, i64 40
  %30 = load ptr, ptr %29, align 8
  %31 = tail call noundef ptr %30(ptr noundef nonnull align 8 dereferenceable(52) %22) #10
  %32 = load ptr, ptr @_ZN4Type6MEMORYE, align 8
  %33 = icmp eq ptr %31, %32
  br i1 %33, label %34, label %46

34:                                               ; preds = %27
  %35 = load ptr, ptr %19, align 8
  %36 = getelementptr inbounds i8, ptr %35, i64 16
  %37 = load ptr, ptr %36, align 8
  %38 = load ptr, ptr %22, align 8
  %39 = getelementptr inbounds i8, ptr %38, i64 48
  %40 = load ptr, ptr %39, align 8
  %41 = tail call noundef ptr %40(ptr noundef nonnull align 8 dereferenceable(52) %22) #10
  %42 = tail call noundef ptr @_ZN7Compile15find_alias_typeEPK7TypePtrbP7ciField(ptr noundef nonnull align 8 dereferenceable(2316) %37, ptr noundef %41, i1 noundef zeroext false, ptr noundef null) #10
  %43 = load i32, ptr %42, align 8
  %44 = load i32, ptr %20, align 8
  %45 = icmp eq i32 %43, %44
  br i1 %45, label %.loopexit, label %46

46:                                               ; preds = %21, %27, %34
  %47 = getelementptr inbounds i8, ptr %.01518, i64 8
  %48 = icmp ult ptr %47, %18
  br i1 %48, label %21, label %.loopexit, !llvm.loop !91

49:                                               ; preds = %2
  %50 = getelementptr inbounds i8, ptr %0, i64 40
  %51 = load ptr, ptr %50, align 8
  %52 = getelementptr inbounds i8, ptr %51, i64 16
  %53 = load ptr, ptr %52, align 8
  %54 = load ptr, ptr %1, align 8
  %55 = getelementptr inbounds i8, ptr %54, i64 48
  %56 = load ptr, ptr %55, align 8
  %57 = tail call noundef ptr %56(ptr noundef nonnull align 8 dereferenceable(52) %1) #10
  %58 = tail call noundef ptr @_ZN7Compile15find_alias_typeEPK7TypePtrbP7ciField(ptr noundef nonnull align 8 dereferenceable(2316) %53, ptr noundef %57, i1 noundef zeroext false, ptr noundef null) #10
  %59 = load i32, ptr %58, align 8
  %60 = getelementptr inbounds i8, ptr %0, i64 32
  %61 = load i32, ptr %60, align 8
  %62 = icmp eq i32 %59, %61
  br label %.loopexit

.loopexit:                                        ; preds = %34, %46, %9, %49
  %.0 = phi i1 [ %62, %49 ], [ true, %9 ], [ false, %34 ], [ true, %46 ]
  ret i1 %.0
}